target datalayout = "e-m:e-p270:32:32-p271:32:32-p272:64:64-i64:64-i128:128-f80:128-n8:16:32:64-S128"
target triple = "x86_64-pc-linux-gnu"

; Function Attrs: nounwind uwtable
define i32 @dtcvasc(ptr noundef %0, ptr noundef %1) #0 {
  %3 = alloca i32, align 4
  %4 = alloca ptr, align 8
  %5 = alloca ptr, align 8
  %6 = alloca i64, align 8
  %7 = alloca i32, align 4
  %8 = alloca ptr, align 8
  %9 = alloca i32, align 4
  store ptr %0, ptr %4, align 8
  store ptr %1, ptr %5, align 8
  call void @llvm.lifetime.start.p0(i64 8, ptr %6) #9
  call void @llvm.lifetime.start.p0(i64 4, ptr %7) #9
  call void @llvm.lifetime.start.p0(i64 8, ptr %8) #9
  store ptr %4, ptr %8, align 8
  %10 = call ptr @__errno_location() #8
  store i32 0, ptr %10, align 4
  %11 = load ptr, ptr %4, align 8
  %12 = load ptr, ptr %8, align 8
  %13 = call i64 @PGTYPEStimestamp_from_asc(ptr noundef %11, ptr noundef %12)
  store i64 %13, ptr %6, align 8
  %14 = call ptr @__errno_location() #8
  %15 = load i32, ptr %14, align 4
  store i32 %15, ptr %7, align 4
  %16 = load i32, ptr %7, align 4
  %17 = icmp ne i32 %16, 0
  br i1 %17, label %18, label %20

18:                                               ; preds = %2
  %19 = load i32, ptr %7, align 4
  store i32 %19, ptr %3, align 4
  store i32 1, ptr %9, align 4
  br label %29

20:                                               ; preds = %2
  %21 = load ptr, ptr %8, align 8
  %22 = load ptr, ptr %21, align 8
  %23 = load i8, ptr %22, align 1
  %24 = icmp ne i8 %23, 0
  br i1 %24, label %25, label %26

25:                                               ; preds = %20
  store i32 -1264, ptr %3, align 4
  store i32 1, ptr %9, align 4
  br label %29

26:                                               ; preds = %20
  %27 = load i64, ptr %6, align 8
  %28 = load ptr, ptr %5, align 8
  store i64 %27, ptr %28, align 8
  store i32 0, ptr %3, align 4
  store i32 1, ptr %9, align 4
  br label %29

29:                                               ; preds = %26, %25, %18
  call void @llvm.lifetime.end.p0(i64 8, ptr %8) #9
  call void @llvm.lifetime.end.p0(i64 4, ptr %7) #9
  call void @llvm.lifetime.end.p0(i64 8, ptr %6) #9
  %30 = load i32, ptr %3, align 4
  ret i32 %30
}