; Function Attrs: nounwind uwtable
define i32 @dtcvasc(ptr noundef %0, ptr noundef writeonly captures(none) %1) local_unnamed_addr #0 {
  %3 = alloca ptr, align 8
  store ptr %0, ptr %3, align 8
  %4 = tail call ptr @__errno_location() #15
  store i32 0, ptr %4, align 4
  %5 = call i64 @PGTYPEStimestamp_from_asc(ptr noundef %0, ptr noundef nonnull %3) #16
  %6 = load i32, ptr %4, align 4
  %.not = icmp eq i32 %6, 0
  br i1 %.not, label %7, label %11

7:                                                ; preds = %2
  %8 = load ptr, ptr %3, align 8
  %9 = load i8, ptr %8, align 1
  %.not7 = icmp eq i8 %9, 0
  br i1 %.not7, label %10, label %11

10:                                               ; preds = %7
  store i64 %5, ptr %1, align 8
  br label %11

11:                                               ; preds = %7, %2, %10
  %.0 = phi i32 [ 0, %10 ], [ %6, %2 ], [ -1264, %7 ]
  ret i32 %.0
}